target datalayout = "e-m:e-p270:32:32-p271:32:32-p272:64:64-i64:64-i128:128-f80:128-n8:16:32:64-S128"
target triple = "x86_64-pc-linux-gnu"

%struct._lv_indev_t = type { i32, ptr, i32, i32, i32, i8, i32, i32, ptr, ptr, ptr, ptr, i8, i8, i8, i8, i16, i16, i32, %struct.anon, %struct.anon.0, ptr, ptr, ptr, %struct.lv_event_list_t, ptr, i32, ptr }
%struct.anon = type { %struct.lv_point_t, %struct.lv_point_t, %struct.lv_point_t, %struct.lv_point_t, %struct.lv_point_t, %struct.lv_point_t, %struct.lv_point_t, ptr, ptr, ptr, ptr, ptr, %struct.lv_area_t, %struct.lv_point_t, i32, i8, %struct.lv_point_t, i32, i16 }
%struct.lv_area_t = type { i32, i32, i32, i32 }
%struct.lv_point_t = type { i32, i32 }
%struct.anon.0 = type { i32, i32 }
%struct.lv_event_list_t = type { %struct._lv_array_t, i8 }
%struct._lv_array_t = type { ptr, i32, i32, i32, i8 }

; Function Attrs: nounwind uwtable
define void @lv_indev_set_cursor(ptr noundef %0, ptr noundef %1) #0 {
  %3 = alloca ptr, align 8
  %4 = alloca ptr, align 8
  store ptr %0, ptr %3, align 8, !tbaa !8
  store ptr %1, ptr %4, align 8, !tbaa !131
  %5 = load ptr, ptr %3, align 8, !tbaa !8
  %6 = getelementptr inbounds nuw %struct._lv_indev_t, ptr %5, i32 0, i32 0
  %7 = load i32, ptr %6, align 8, !tbaa !26
  %8 = icmp ne i32 %7, 1
  br i1 %8, label %9, label %10

9:                                                ; preds = %2
  br label %40

10:                                               ; preds = %2
  %11 = load ptr, ptr %4, align 8, !tbaa !131
  %12 = load ptr, ptr %3, align 8, !tbaa !8
  %13 = getelementptr inbounds nuw %struct._lv_indev_t, ptr %12, i32 0, i32 21
  store ptr %11, ptr %13, align 8, !tbaa !104
  %14 = load ptr, ptr %3, align 8, !tbaa !8
  %15 = getelementptr inbounds nuw %struct._lv_indev_t, ptr %14, i32 0, i32 21
  %16 = load ptr, ptr %15, align 8, !tbaa !104
  %17 = load ptr, ptr %3, align 8, !tbaa !8
  %18 = getelementptr inbounds nuw %struct._lv_indev_t, ptr %17, i32 0, i32 10
  %19 = load ptr, ptr %18, align 8, !tbaa !25
  %20 = call ptr @lv_display_get_layer_sys(ptr noundef %19)
  call void @lv_obj_set_parent(ptr noundef %16, ptr noundef %20)
  %21 = load ptr, ptr %3, align 8, !tbaa !8
  %22 = getelementptr inbounds nuw %struct._lv_indev_t, ptr %21, i32 0, i32 21
  %23 = load ptr, ptr %22, align 8, !tbaa !104
  %24 = load ptr, ptr %3, align 8, !tbaa !8
  %25 = getelementptr inbounds nuw %struct._lv_indev_t, ptr %24, i32 0, i32 19
  %26 = getelementptr inbounds nuw %struct.anon, ptr %25, i32 0, i32 0
  %27 = getelementptr inbounds nuw %struct.lv_point_t, ptr %26, i32 0, i32 0
  %28 = load i32, ptr %27, align 8, !tbaa !107
  %29 = load ptr, ptr %3, align 8, !tbaa !8
  %30 = getelementptr inbounds nuw %struct._lv_indev_t, ptr %29, i32 0, i32 19
  %31 = getelementptr inbounds nuw %struct.anon, ptr %30, i32 0, i32 0
  %32 = getelementptr inbounds nuw %struct.lv_point_t, ptr %31, i32 0, i32 1
  %33 = load i32, ptr %32, align 4, !tbaa !108
  call void @lv_obj_set_pos(ptr noundef %23, i32 noundef %28, i32 noundef %33)
  %34 = load ptr, ptr %3, align 8, !tbaa !8
  %35 = getelementptr inbounds nuw %struct._lv_indev_t, ptr %34, i32 0, i32 21
  %36 = load ptr, ptr %35, align 8, !tbaa !104
  call void @lv_obj_remove_flag(ptr noundef %36, i32 noundef 2)
  %37 = load ptr, ptr %3, align 8, !tbaa !8
  %38 = getelementptr inbounds nuw %struct._lv_indev_t, ptr %37, i32 0, i32 21
  %39 = load ptr, ptr %38, align 8, !tbaa !104
  call void @lv_obj_add_flag(ptr noundef %39, i32 noundef 393216)
  br label %40

40:                                               ; preds = %10, %9
  ret void
}