; Function Attrs: nounwind uwtable
define void @lv_indev_set_cursor(ptr noundef captures(none) %0, ptr noundef %1) local_unnamed_addr #0 {
  %3 = load i32, ptr %0, align 8, !tbaa !23
  %.not = icmp eq i32 %3, 1
  br i1 %.not, label %4, label %16

4:                                                ; preds = %2
  %5 = getelementptr inbounds nuw i8, ptr %0, i64 240
  store ptr %1, ptr %5, align 8, !tbaa !90
  %6 = getelementptr inbounds nuw i8, ptr %0, i64 56
  %7 = load ptr, ptr %6, align 8, !tbaa !22
  %8 = tail call ptr @lv_display_get_layer_sys(ptr noundef %7) #11
  tail call void @lv_obj_set_parent(ptr noundef %1, ptr noundef %8) #11
  %9 = load ptr, ptr %5, align 8, !tbaa !90
  %10 = getelementptr inbounds nuw i8, ptr %0, i64 88
  %11 = load i32, ptr %10, align 8, !tbaa !93
  %12 = getelementptr inbounds nuw i8, ptr %0, i64 92
  %13 = load i32, ptr %12, align 4, !tbaa !94
  tail call void @lv_obj_set_pos(ptr noundef %9, i32 noundef %11, i32 noundef %13) #11
  %14 = load ptr, ptr %5, align 8, !tbaa !90
  tail call void @lv_obj_remove_flag(ptr noundef %14, i32 noundef 2) #11
  %15 = load ptr, ptr %5, align 8, !tbaa !90
  tail call void @lv_obj_add_flag(ptr noundef %15, i32 noundef 393216) #11
  br label %16

16:                                               ; preds = %2, %4
  ret void
}